target datalayout = "e-m:e-p270:32:32-p271:32:32-p272:64:64-i64:64-i128:128-f80:128-n8:16:32:64-S128"
target triple = "x86_64-pc-linux-gnu"

%"class.cvc5::internal::Integer" = type { %class.__gmp_expr }
%class.__gmp_expr = type { [1 x %struct.__mpz_struct] }
%struct.__mpz_struct = type { i32, i32, ptr }
%"class.cvc5::internal::BitVector" = type { i32, %"class.cvc5::internal::Integer" }

; Function Attrs: mustprogress nounwind uwtable
define hidden noundef nonnull align 8 dereferenceable(16) ptr @_ZNK4cvc58internal9BitVector8getValueEv(ptr noundef nonnull align 8 dereferenceable(24) %0) #6 align 2 {
  %2 = alloca ptr, align 8
  store ptr %0, ptr %2, align 8, !tbaa !3
  %3 = load ptr, ptr %2, align 8
  %4 = getelementptr inbounds nuw %"class.cvc5::internal::BitVector", ptr %3, i32 0, i32 1
  ret ptr %4
}

; Function Attrs: mustprogress nounwind uwtable
define hidden noundef i32 @_ZNK4cvc58internal9BitVector7getSizeEv(ptr noundef nonnull align 8 dereferenceable(24) %0) #6 align 2 {
  %2 = alloca ptr, align 8
  store ptr %0, ptr %2, align 8, !tbaa !3
  %3 = load ptr, ptr %2, align 8
  %4 = getelementptr inbounds nuw %"class.cvc5::internal::BitVector", ptr %3, i32 0, i32 0
  %5 = load i32, ptr %4, align 8, !tbaa !12
  ret i32 %5
}

; Function Attrs: mustprogress uwtable
define hidden noundef zeroext i1 @_ZN4cvc58internalneERKNS0_9BitVectorES3_(ptr noundef nonnull align 8 dereferenceable(24) %0, ptr noundef nonnull align 8 dereferenceable(24) %1) #4 {
  %3 = alloca i1, align 1
  %4 = alloca ptr, align 8
  %5 = alloca ptr, align 8
  store ptr %0, ptr %4, align 8, !tbaa !3
  store ptr %1, ptr %5, align 8, !tbaa !3
  %6 = load ptr, ptr %4, align 8, !tbaa !3
  %7 = call noundef i32 @_ZNK4cvc58internal9BitVector7getSizeEv(ptr noundef nonnull align 8 dereferenceable(24) %6)
  %8 = load ptr, ptr %5, align 8, !tbaa !3
  %9 = call noundef i32 @_ZNK4cvc58internal9BitVector7getSizeEv(ptr noundef nonnull align 8 dereferenceable(24) %8)
  %10 = icmp ne i32 %7, %9
  br i1 %10, label %11, label %12

11:                                               ; preds = %2
  store i1 true, ptr %3, align 1
  br label %18

12:                                               ; preds = %2
  %13 = load ptr, ptr %4, align 8, !tbaa !3
  %14 = call noundef nonnull align 8 dereferenceable(16) ptr @_ZNK4cvc58internal9BitVector8getValueEv(ptr noundef nonnull align 8 dereferenceable(24) %13)
  %15 = load ptr, ptr %5, align 8, !tbaa !3
  %16 = call noundef nonnull align 8 dereferenceable(16) ptr @_ZNK4cvc58internal9BitVector8getValueEv(ptr noundef nonnull align 8 dereferenceable(24) %15)
  %17 = call noundef zeroext i1 @_ZNK4cvc58internal7IntegerneERKS1_(ptr noundef nonnull align 8 dereferenceable(16) %14, ptr noundef nonnull align 8 dereferenceable(16) %16)
  store i1 %17, ptr %3, align 1
  br label %18

18:                                               ; preds = %12, %11
  %19 = load i1, ptr %3, align 1
  ret i1 %19
}