; Function Attrs: mustprogress uwtable
define hidden noundef zeroext i1 @_ZN4cvc58internalneERKNS0_9BitVectorES3_(ptr noundef nonnull align 8 dereferenceable(24) %0, ptr noundef nonnull align 8 dereferenceable(24) %1) local_unnamed_addr #3 {
  %3 = load i32, ptr %0, align 8, !tbaa !11
  %4 = load i32, ptr %1, align 8, !tbaa !11
  %.not = icmp eq i32 %3, %4
  br i1 %.not, label %5, label %9

5:                                                ; preds = %2
  %6 = getelementptr inbounds nuw i8, ptr %0, i64 8
  %7 = getelementptr inbounds nuw i8, ptr %1, i64 8
  %8 = tail call noundef zeroext i1 @_ZNK4cvc58internal7IntegerneERKS1_(ptr noundef nonnull align 8 dereferenceable(16) %6, ptr noundef nonnull align 8 dereferenceable(16) %7)
  br label %9

9:                                                ; preds = %2, %5
  %.0 = phi i1 [ %8, %5 ], [ true, %2 ]
  ret i1 %.0
}